; Function Attrs: nounwind uwtable
define internal void @dts2pts_close(ptr noundef %0) #0 {
  %2 = getelementptr inbounds nuw i8, ptr %0, i64 16
  %3 = load ptr, ptr %2, align 8, !tbaa !4
  tail call void @dts2pts_flush(ptr noundef %0)
  %4 = getelementptr inbounds nuw i8, ptr %3, i64 8
  tail call void @av_fifo_freep2(ptr noundef nonnull %4) #9
  %5 = getelementptr inbounds nuw i8, ptr %3, i64 16
  tail call void @av_refstruct_unref(ptr noundef nonnull %5) #9
  %6 = getelementptr inbounds nuw i8, ptr %3, i64 64
  tail call void @ff_cbs_fragment_free(ptr noundef nonnull %6) #9
  %7 = getelementptr inbounds nuw i8, ptr %3, i64 56
  tail call void @ff_cbs_close(ptr noundef nonnull %7) #9
  ret void
}